target datalayout = "e-m:e-p270:32:32-p271:32:32-p272:64:64-i64:64-i128:128-f80:128-n8:16:32:64-S128"
target triple = "x86_64-pc-linux-gnu"

%struct.AV1RawFrameHeader = type { i8, i8, i32, i32, i8, i8, i8, i8, i8, i8, i8, i32, i8, i8, i8, [32 x i32], i8, i16, i16, i8, i8, i8, i16, i16, [7 x i8], i8, i8, [8 x i8], i8, i8, i8, [7 x i8], [7 x i32], i8, i8, i8, i8, i8, i8, i8, i8, i8, [64 x i8], [64 x i8], [64 x i8], [64 x i8], i16, i8, i16, i16, i8, i8, i8, i8, i8, i8, i8, i8, i8, i8, i8, i8, i8, i8, i8, [8 x [8 x i8]], [8 x [8 x i16]], i8, i8, i8, i8, i8, [4 x i8], i8, i8, i8, [8 x i8], [8 x i8], [2 x i8], [2 x i8], i8, i8, [8 x i8], [8 x i8], [8 x i8], [8 x i8], [3 x i8], i8, i8, i8, i8, i8, i8, i8, [8 x i8], [8 x i8], [8 x i8], [8 x [6 x i32]], %struct.AV1RawFilmGrainParams }
%struct.AV1RawFilmGrainParams = type { i8, i16, i8, i8, i8, [14 x i8], [14 x i8], i8, i8, [10 x i8], [10 x i8], i8, [10 x i8], [10 x i8], i8, i8, [24 x i8], [25 x i8], [25 x i8], i8, i8, i8, i8, i16, i8, i8, i16, i8, i8 }

@.str.212 = private unnamed_addr constant [17 x i8] c"reference_select\00", align 1

; Function Attrs: nounwind uwtable
define internal i32 @cbs_av1_read_frame_reference_mode(ptr noundef %0, ptr noundef %1, ptr noundef %2) #0 {
  %4 = alloca i32, align 4
  %5 = alloca ptr, align 8
  %6 = alloca ptr, align 8
  %7 = alloca ptr, align 8
  %8 = alloca i32, align 4
  %9 = alloca i32, align 4
  %10 = alloca i32, align 4
  store ptr %0, ptr %5, align 8, !tbaa !4
  store ptr %1, ptr %6, align 8, !tbaa !103
  store ptr %2, ptr %7, align 8, !tbaa !159
  call void @llvm.lifetime.start.p0(i64 4, ptr %8) #8
  %11 = load ptr, ptr %7, align 8, !tbaa !159
  %12 = getelementptr inbounds nuw %struct.AV1RawFrameHeader, ptr %11, i32 0, i32 4
  %13 = load i8, ptr %12, align 4, !tbaa !222
  %14 = zext i8 %13 to i32
  %15 = icmp eq i32 %14, 2
  br i1 %15, label %22, label %16

16:                                               ; preds = %3
  %17 = load ptr, ptr %7, align 8, !tbaa !159
  %18 = getelementptr inbounds nuw %struct.AV1RawFrameHeader, ptr %17, i32 0, i32 4
  %19 = load i8, ptr %18, align 4, !tbaa !222
  %20 = zext i8 %19 to i32
  %21 = icmp eq i32 %20, 0
  br i1 %21, label %22, label %28

22:                                               ; preds = %16, %3
  br label %23

23:                                               ; preds = %22
  %24 = load ptr, ptr %7, align 8, !tbaa !159
  %25 = getelementptr inbounds nuw %struct.AV1RawFrameHeader, ptr %24, i32 0, i32 90
  store i8 0, ptr %25, align 2, !tbaa !360
  br label %26

26:                                               ; preds = %23
  br label %27

27:                                               ; preds = %26
  br label %50

28:                                               ; preds = %16
  br label %29

29:                                               ; preds = %28
  call void @llvm.lifetime.start.p0(i64 4, ptr %9) #8
  br label %30

30:                                               ; preds = %29
  %31 = load ptr, ptr %5, align 8, !tbaa !4
  %32 = load ptr, ptr %6, align 8, !tbaa !103
  %33 = call i32 @ff_cbs_read_simple_unsigned(ptr noundef %31, ptr noundef %32, i32 noundef 1, ptr noundef @.str.212, ptr noundef %9)
  store i32 %33, ptr %8, align 4, !tbaa !11
  %34 = load i32, ptr %8, align 4, !tbaa !11
  %35 = icmp slt i32 %34, 0
  br i1 %35, label %36, label %38

36:                                               ; preds = %30
  %37 = load i32, ptr %8, align 4, !tbaa !11
  store i32 %37, ptr %4, align 4
  store i32 1, ptr %10, align 4
  br label %45

38:                                               ; preds = %30
  br label %39

39:                                               ; preds = %38
  br label %40

40:                                               ; preds = %39
  %41 = load i32, ptr %9, align 4, !tbaa !11
  %42 = trunc i32 %41 to i8
  %43 = load ptr, ptr %7, align 8, !tbaa !159
  %44 = getelementptr inbounds nuw %struct.AV1RawFrameHeader, ptr %43, i32 0, i32 90
  store i8 %42, ptr %44, align 2, !tbaa !360
  store i32 0, ptr %10, align 4
  br label %45

45:                                               ; preds = %40, %36
  call void @llvm.lifetime.end.p0(i64 4, ptr %9) #8
  %46 = load i32, ptr %10, align 4
  switch i32 %46, label %51 [
    i32 0, label %47
  ]

47:                                               ; preds = %45
  br label %48

48:                                               ; preds = %47
  br label %49

49:                                               ; preds = %48
  br label %50

50:                                               ; preds = %49, %27
  store i32 0, ptr %4, align 4
  store i32 1, ptr %10, align 4
  br label %51

51:                                               ; preds = %50, %45
  call void @llvm.lifetime.end.p0(i64 4, ptr %8) #8
  %52 = load i32, ptr %4, align 4
  ret i32 %52
}