; Function Attrs: nounwind uwtable
define internal fastcc range(i32 -2147483648, 1) i32 @cbs_av1_read_frame_reference_mode(ptr noundef %0, ptr noundef nonnull %1, ptr noundef captures(none) %2) unnamed_addr #0 {
  %4 = alloca i32, align 4
  %5 = getelementptr inbounds nuw i8, ptr %2, i64 12
  %6 = load i8, ptr %5, align 4, !tbaa !214
  switch i8 %6, label %9 [
    i8 2, label %7
    i8 0, label %7
  ]

7:                                                ; preds = %3, %3
  %8 = getelementptr inbounds nuw i8, ptr %2, i64 782
  store i8 0, ptr %8, align 2, !tbaa !376
  br label %16

9:                                                ; preds = %3
  call void @llvm.lifetime.start.p0(i64 4, ptr nonnull %4) #8
  %10 = call i32 @ff_cbs_read_simple_unsigned(ptr noundef %0, ptr noundef nonnull %1, i32 noundef 1, ptr noundef nonnull @.str.212, ptr noundef nonnull %4) #8
  %11 = icmp sgt i32 %10, -1
  br i1 %11, label %12, label %.critedge

12:                                               ; preds = %9
  %13 = load i32, ptr %4, align 4, !tbaa !69
  %14 = trunc i32 %13 to i8
  %15 = getelementptr inbounds nuw i8, ptr %2, i64 782
  store i8 %14, ptr %15, align 2, !tbaa !376
  call void @llvm.lifetime.end.p0(i64 4, ptr nonnull %4) #8
  br label %16

.critedge:                                        ; preds = %9
  call void @llvm.lifetime.end.p0(i64 4, ptr nonnull %4) #8
  br label %16

16:                                               ; preds = %7, %12, %.critedge
  %.1 = phi i32 [ %10, %.critedge ], [ 0, %12 ], [ 0, %7 ]
  ret i32 %.1
}